
MCU_GPS_LOGGER.elf:     file format elf32-avr

Sections:
Idx Name          Size      VMA       LMA       File off  Algn
  0 .data         000000f0  00800100  000005fa  0000066e  2**0
                  CONTENTS, ALLOC, LOAD, DATA
  1 .text         000005fa  00000000  00000000  00000074  2**1
                  CONTENTS, ALLOC, LOAD, READONLY, CODE
  2 .comment      00000030  00000000  00000000  0000075e  2**0
                  CONTENTS, READONLY
  3 .note.gnu.avr.deviceinfo 00000040  00000000  00000000  00000790  2**2
                  CONTENTS, READONLY
  4 .debug_aranges 00000110  00000000  00000000  000007d0  2**0
                  CONTENTS, READONLY, DEBUGGING
  5 .debug_info   00001484  00000000  00000000  000008e0  2**0
                  CONTENTS, READONLY, DEBUGGING
  6 .debug_abbrev 00000aad  00000000  00000000  00001d64  2**0
                  CONTENTS, READONLY, DEBUGGING
  7 .debug_line   000009a8  00000000  00000000  00002811  2**0
                  CONTENTS, READONLY, DEBUGGING
  8 .debug_frame  00000310  00000000  00000000  000031bc  2**2
                  CONTENTS, READONLY, DEBUGGING
  9 .debug_str    000005eb  00000000  00000000  000034cc  2**0
                  CONTENTS, READONLY, DEBUGGING
 10 .debug_loc    00000c4d  00000000  00000000  00003ab7  2**0
                  CONTENTS, READONLY, DEBUGGING
 11 .debug_ranges 000000d0  00000000  00000000  00004704  2**0
                  CONTENTS, READONLY, DEBUGGING

Disassembly of section .text:

00000000 <__vectors>:
   0:	0c 94 34 00 	jmp	0x68	; 0x68 <__ctors_end>
   4:	0c 94 49 00 	jmp	0x92	; 0x92 <__bad_interrupt>
   8:	0c 94 49 00 	jmp	0x92	; 0x92 <__bad_interrupt>
   c:	0c 94 49 00 	jmp	0x92	; 0x92 <__bad_interrupt>
  10:	0c 94 49 00 	jmp	0x92	; 0x92 <__bad_interrupt>
  14:	0c 94 49 00 	jmp	0x92	; 0x92 <__bad_interrupt>
  18:	0c 94 49 00 	jmp	0x92	; 0x92 <__bad_interrupt>
  1c:	0c 94 49 00 	jmp	0x92	; 0x92 <__bad_interrupt>
  20:	0c 94 49 00 	jmp	0x92	; 0x92 <__bad_interrupt>
  24:	0c 94 49 00 	jmp	0x92	; 0x92 <__bad_interrupt>
  28:	0c 94 49 00 	jmp	0x92	; 0x92 <__bad_interrupt>
  2c:	0c 94 49 00 	jmp	0x92	; 0x92 <__bad_interrupt>
  30:	0c 94 49 00 	jmp	0x92	; 0x92 <__bad_interrupt>
  34:	0c 94 49 00 	jmp	0x92	; 0x92 <__bad_interrupt>
  38:	0c 94 49 00 	jmp	0x92	; 0x92 <__bad_interrupt>
  3c:	0c 94 49 00 	jmp	0x92	; 0x92 <__bad_interrupt>
  40:	0c 94 49 00 	jmp	0x92	; 0x92 <__bad_interrupt>
  44:	0c 94 49 00 	jmp	0x92	; 0x92 <__bad_interrupt>
  48:	0c 94 49 00 	jmp	0x92	; 0x92 <__bad_interrupt>
  4c:	0c 94 49 00 	jmp	0x92	; 0x92 <__bad_interrupt>
  50:	0c 94 49 00 	jmp	0x92	; 0x92 <__bad_interrupt>
  54:	0c 94 49 00 	jmp	0x92	; 0x92 <__bad_interrupt>
  58:	0c 94 49 00 	jmp	0x92	; 0x92 <__bad_interrupt>
  5c:	0c 94 49 00 	jmp	0x92	; 0x92 <__bad_interrupt>
  60:	0c 94 49 00 	jmp	0x92	; 0x92 <__bad_interrupt>
  64:	0c 94 49 00 	jmp	0x92	; 0x92 <__bad_interrupt>

00000068 <__ctors_end>:
  68:	11 24       	eor	r1, r1
  6a:	1f be       	out	0x3f, r1	; 63
  6c:	cf ef       	ldi	r28, 0xFF	; 255
  6e:	d8 e0       	ldi	r29, 0x08	; 8
  70:	de bf       	out	0x3e, r29	; 62
  72:	cd bf       	out	0x3d, r28	; 61

00000074 <__do_copy_data>:
  74:	11 e0       	ldi	r17, 0x01	; 1
  76:	a0 e0       	ldi	r26, 0x00	; 0
  78:	b1 e0       	ldi	r27, 0x01	; 1
  7a:	ea ef       	ldi	r30, 0xFA	; 250
  7c:	f5 e0       	ldi	r31, 0x05	; 5
  7e:	02 c0       	rjmp	.+4      	; 0x84 <__do_copy_data+0x10>
  80:	05 90       	lpm	r0, Z+
  82:	0d 92       	st	X+, r0
  84:	a0 3f       	cpi	r26, 0xF0	; 240
  86:	b1 07       	cpc	r27, r17
  88:	d9 f7       	brne	.-10     	; 0x80 <__do_copy_data+0xc>
  8a:	0e 94 49 02 	call	0x492	; 0x492 <main>
  8e:	0c 94 fb 02 	jmp	0x5f6	; 0x5f6 <_exit>

00000092 <__bad_interrupt>:
  92:	0c 94 00 00 	jmp	0	; 0x0 <__vectors>

00000096 <EEPROM_read_byte>:
		EEPROM_write_byte_next_free(byte);
	}
}

uint8_t EEPROM_read_byte(uint16_t address) {
	cli();							// disable interrupts
  96:	f8 94       	cli
	
	uint8_t byte = 0;
	
	while(EECR & (1 << EEPE));	// check that no one is writing data to EEPROM
  98:	f9 99       	sbic	0x1f, 1	; 31
  9a:	fe cf       	rjmp	.-4      	; 0x98 <EEPROM_read_byte+0x2>
	
	EEAR = address;					// set address to read from
  9c:	92 bd       	out	0x22, r25	; 34
  9e:	81 bd       	out	0x21, r24	; 33
	EECR |= (1 << EERE);			// enable reading 
  a0:	f8 9a       	sbi	0x1f, 0	; 31
	
	byte = EEDR;
  a2:	80 b5       	in	r24, 0x20	; 32
	
	sei();							// enable interrupts
  a4:	78 94       	sei

	return byte;
}
  a6:	08 95       	ret

000000a8 <EEPROM_read_word>:

// reads 4 byte from memory starting at address and returns it
uint32_t EEPROM_read_word(uint16_t address){
  a8:	cf 92       	push	r12
  aa:	df 92       	push	r13
  ac:	ef 92       	push	r14
  ae:	ff 92       	push	r15
  b0:	0f 93       	push	r16
  b2:	1f 93       	push	r17
  b4:	cf 93       	push	r28
  b6:	df 93       	push	r29
  b8:	8c 01       	movw	r16, r24
  ba:	c8 e1       	ldi	r28, 0x18	; 24
  bc:	d0 e0       	ldi	r29, 0x00	; 0
	uint32_t byte = 0;
	uint32_t word = 0;
  be:	c1 2c       	mov	r12, r1
  c0:	d1 2c       	mov	r13, r1
  c2:	76 01       	movw	r14, r12
	
	for (uint8_t i = 0; i < WORD; i++)
	{
		byte = EEPROM_read_byte(address + i);
  c4:	c8 01       	movw	r24, r16
  c6:	0e 94 4b 00 	call	0x96	; 0x96 <EEPROM_read_byte>
		word |= (byte << (WORD - i - 1) * BYTE);
  ca:	90 e0       	ldi	r25, 0x00	; 0
  cc:	a0 e0       	ldi	r26, 0x00	; 0
  ce:	b0 e0       	ldi	r27, 0x00	; 0
  d0:	0c 2e       	mov	r0, r28
  d2:	04 c0       	rjmp	.+8      	; 0xdc <EEPROM_read_word+0x34>
  d4:	88 0f       	add	r24, r24
  d6:	99 1f       	adc	r25, r25
  d8:	aa 1f       	adc	r26, r26
  da:	bb 1f       	adc	r27, r27
  dc:	0a 94       	dec	r0
  de:	d2 f7       	brpl	.-12     	; 0xd4 <EEPROM_read_word+0x2c>
  e0:	c8 2a       	or	r12, r24
  e2:	d9 2a       	or	r13, r25
  e4:	ea 2a       	or	r14, r26
  e6:	fb 2a       	or	r15, r27
  e8:	0f 5f       	subi	r16, 0xFF	; 255
  ea:	1f 4f       	sbci	r17, 0xFF	; 255
  ec:	28 97       	sbiw	r28, 0x08	; 8
// reads 4 byte from memory starting at address and returns it
uint32_t EEPROM_read_word(uint16_t address){
	uint32_t byte = 0;
	uint32_t word = 0;
	
	for (uint8_t i = 0; i < WORD; i++)
  ee:	c8 3f       	cpi	r28, 0xF8	; 248
  f0:	8f ef       	ldi	r24, 0xFF	; 255
  f2:	d8 07       	cpc	r29, r24
  f4:	39 f7       	brne	.-50     	; 0xc4 <EEPROM_read_word+0x1c>
		byte = EEPROM_read_byte(address + i);
		word |= (byte << (WORD - i - 1) * BYTE);
	}
	
	return word;
}
  f6:	c7 01       	movw	r24, r14
  f8:	b6 01       	movw	r22, r12
  fa:	df 91       	pop	r29
  fc:	cf 91       	pop	r28
  fe:	1f 91       	pop	r17
 100:	0f 91       	pop	r16
 102:	ff 90       	pop	r15
 104:	ef 90       	pop	r14
 106:	df 90       	pop	r13
 108:	cf 90       	pop	r12
 10a:	08 95       	ret

0000010c <EEPROM_get_free_address>:

// gives the address of the next free byte [xxxxx(address)--------]
// this is stored in the first 2 bytes of EEPROM memory
uint16_t EEPROM_get_free_address() {
 10c:	cf 93       	push	r28
	uint16_t address = 0;
	address |= (EEPROM_read_byte(ADDRESS_HIGH_BYTE) << BYTE);	// set the 8 msb as the address high bits
 10e:	80 e0       	ldi	r24, 0x00	; 0
 110:	90 e0       	ldi	r25, 0x00	; 0
 112:	0e 94 4b 00 	call	0x96	; 0x96 <EEPROM_read_byte>
 116:	c8 2f       	mov	r28, r24
	address |= EEPROM_read_byte(ADDRESS_LOW_BYTE);				// set the 8 lsb as the address high bits
 118:	81 e0       	ldi	r24, 0x01	; 1
 11a:	90 e0       	ldi	r25, 0x00	; 0
 11c:	0e 94 4b 00 	call	0x96	; 0x96 <EEPROM_read_byte>
	return address;
 120:	2c 2f       	mov	r18, r28
 122:	30 e0       	ldi	r19, 0x00	; 0
 124:	32 2f       	mov	r19, r18
 126:	22 27       	eor	r18, r18
}
 128:	a9 01       	movw	r20, r18
 12a:	48 2b       	or	r20, r24
 12c:	ca 01       	movw	r24, r20
 12e:	cf 91       	pop	r28
 130:	08 95       	ret

00000132 <EEPROM_set_free_address>:

// updates the free address to the next free byte using the size of last written data
void EEPROM_set_free_address(uint8_t size) {
 132:	cf 93       	push	r28
 134:	df 93       	push	r29
 136:	c8 2f       	mov	r28, r24
	uint16_t last_address = EEPROM_get_free_address();
 138:	0e 94 86 00 	call	0x10c	; 0x10c <EEPROM_get_free_address>
	last_address += size;
 13c:	8c 0f       	add	r24, r28
 13e:	91 1d       	adc	r25, r1
 140:	ec 01       	movw	r28, r24
	uint8_t last_address_low = last_address;			// set 8 lsb, 
	uint8_t last_address_high = (last_address >> BYTE);		// set 8 msb
	EEPROM_write_byte(last_address_low, ADDRESS_LOW_BYTE);
 142:	61 e0       	ldi	r22, 0x01	; 1
 144:	70 e0       	ldi	r23, 0x00	; 0
 146:	0e 94 ad 00 	call	0x15a	; 0x15a <EEPROM_write_byte>
	EEPROM_write_byte(last_address_high, ADDRESS_HIGH_BYTE);
 14a:	60 e0       	ldi	r22, 0x00	; 0
 14c:	70 e0       	ldi	r23, 0x00	; 0
 14e:	8d 2f       	mov	r24, r29
 150:	0e 94 ad 00 	call	0x15a	; 0x15a <EEPROM_write_byte>
}
 154:	df 91       	pop	r29
 156:	cf 91       	pop	r28
 158:	08 95       	ret

0000015a <EEPROM_write_byte>:
#include "EEPROM.h"
#include "USART.h"  // debugging

// automatically set to atomically RW
void EEPROM_write_byte(uint8_t byte, uint16_t address) {
	cli();								// disable interrupts so we don't get interrupted between seting the master write and write
 15a:	f8 94       	cli
	while(EECR & (1 << EEPE));			// wait until previous write is completed
 15c:	f9 99       	sbic	0x1f, 1	; 31
 15e:	fe cf       	rjmp	.-4      	; 0x15c <EEPROM_write_byte+0x2>
	while(SELFPRGEN & (1 << SPMCSR));
 160:	97 b7       	in	r25, 0x37	; 55
	
	EEAR = address;		// write address into address register
 162:	72 bd       	out	0x22, r23	; 34
 164:	61 bd       	out	0x21, r22	; 33
	EEDR = byte;		// write data into data register
 166:	80 bd       	out	0x20, r24	; 32
	EECR |= (1 << EEMPE);	// set Master Write Enable
 168:	fa 9a       	sbi	0x1f, 2	; 31
	EECR |= (1 << EEPE);	// within 4 clock cycles enable write
 16a:	f9 9a       	sbi	0x1f, 1	; 31
	#else
		//round up by default
		__ticks_dc = (uint32_t)(ceil(fabs(__tmp)));
	#endif

	__builtin_avr_delay_cycles(__ticks_dc);
 16c:	81 ee       	ldi	r24, 0xE1	; 225
 16e:	94 e0       	ldi	r25, 0x04	; 4
 170:	01 97       	sbiw	r24, 0x01	; 1
 172:	f1 f7       	brne	.-4      	; 0x170 <EEPROM_write_byte+0x16>
 174:	00 c0       	rjmp	.+0      	; 0x176 <EEPROM_write_byte+0x1c>
 176:	00 00       	nop
	_delay_ms(5);			// write takes about 3-4 ms, R.I.P Run In Peace
	
	if (address >= FIRST_DATA_BYTE) {
 178:	62 30       	cpi	r22, 0x02	; 2
 17a:	71 05       	cpc	r23, r1
 17c:	18 f0       	brcs	.+6      	; 0x184 <EEPROM_write_byte+0x2a>
		EEPROM_set_free_address(1);	// stepping one byte at the time
 17e:	81 e0       	ldi	r24, 0x01	; 1
 180:	0e 94 99 00 	call	0x132	; 0x132 <EEPROM_set_free_address>
	}
	sei();								// enable the interrupts
 184:	78 94       	sei
 186:	08 95       	ret

00000188 <EEPROM_write_byte_next_free>:
}

void EEPROM_write_byte_next_free(uint8_t byte) {
 188:	cf 93       	push	r28
 18a:	c8 2f       	mov	r28, r24
	uint16_t address = EEPROM_get_free_address();
 18c:	0e 94 86 00 	call	0x10c	; 0x10c <EEPROM_get_free_address>
	EEPROM_write_byte(byte, address);
 190:	bc 01       	movw	r22, r24
 192:	8c 2f       	mov	r24, r28
 194:	0e 94 ad 00 	call	0x15a	; 0x15a <EEPROM_write_byte>
}
 198:	cf 91       	pop	r28
 19a:	08 95       	ret

0000019c <EEPROM_write_word_next_free>:

// writes a word to next free location in EEPROM
void EEPROM_write_word_next_free(uint32_t word) {
 19c:	cf 92       	push	r12
 19e:	df 92       	push	r13
 1a0:	ef 92       	push	r14
 1a2:	ff 92       	push	r15
 1a4:	cf 93       	push	r28
 1a6:	6b 01       	movw	r12, r22
 1a8:	7c 01       	movw	r14, r24
	
	uint8_t byte = 0;
	
	for (uint8_t i = WORD-1; i < 255; i--)
 1aa:	c3 e0       	ldi	r28, 0x03	; 3
	{	
		byte = (word >> (i * BYTE));			// take the 8 msb and store them at a time [1010101011111111] => [10101010] at address n, [11111111] at address n+1
		EEPROM_write_byte_next_free(byte);
 1ac:	8c 2f       	mov	r24, r28
 1ae:	88 0f       	add	r24, r24
 1b0:	88 0f       	add	r24, r24
 1b2:	88 0f       	add	r24, r24
 1b4:	a7 01       	movw	r20, r14
 1b6:	96 01       	movw	r18, r12
 1b8:	04 c0       	rjmp	.+8      	; 0x1c2 <EEPROM_write_word_next_free+0x26>
 1ba:	56 95       	lsr	r21
 1bc:	47 95       	ror	r20
 1be:	37 95       	ror	r19
 1c0:	27 95       	ror	r18
 1c2:	8a 95       	dec	r24
 1c4:	d2 f7       	brpl	.-12     	; 0x1ba <EEPROM_write_word_next_free+0x1e>
 1c6:	da 01       	movw	r26, r20
 1c8:	c9 01       	movw	r24, r18
 1ca:	0e 94 c4 00 	call	0x188	; 0x188 <EEPROM_write_byte_next_free>
// writes a word to next free location in EEPROM
void EEPROM_write_word_next_free(uint32_t word) {
	
	uint8_t byte = 0;
	
	for (uint8_t i = WORD-1; i < 255; i--)
 1ce:	c1 50       	subi	r28, 0x01	; 1
 1d0:	68 f7       	brcc	.-38     	; 0x1ac <EEPROM_write_word_next_free+0x10>
	{	
		byte = (word >> (i * BYTE));			// take the 8 msb and store them at a time [1010101011111111] => [10101010] at address n, [11111111] at address n+1
		EEPROM_write_byte_next_free(byte);
	}
}
 1d2:	cf 91       	pop	r28
 1d4:	ff 90       	pop	r15
 1d6:	ef 90       	pop	r14
 1d8:	df 90       	pop	r13
 1da:	cf 90       	pop	r12
 1dc:	08 95       	ret

000001de <EEPROM_clear>:
	EEPROM_write_byte(last_address_high, ADDRESS_HIGH_BYTE);
}

// !!!!!!!!!WARNING!!!!!!!!!!!!! Overwrites the entire EEPROM with zeros and resets next free memory location
// takes ~ 5ms/byte in EEPROM
void EEPROM_clear() {
 1de:	cf 93       	push	r28
 1e0:	df 93       	push	r29
	USART_transmit_string("CLEARING THE EEPROM. THIS MIGHT TAKE A WHILE!!!\n\r");
 1e2:	80 e0       	ldi	r24, 0x00	; 0
 1e4:	91 e0       	ldi	r25, 0x01	; 1
 1e6:	0e 94 6b 02 	call	0x4d6	; 0x4d6 <USART_transmit_string>
	for (int i = FIRST_DATA_BYTE; i < LAST_BYTE; i++)	// only erase 10 first bytes debuggmode
 1ea:	c2 e0       	ldi	r28, 0x02	; 2
 1ec:	d0 e0       	ldi	r29, 0x00	; 0
	{
		EEPROM_write_byte(0, i);
 1ee:	be 01       	movw	r22, r28
 1f0:	80 e0       	ldi	r24, 0x00	; 0
 1f2:	0e 94 ad 00 	call	0x15a	; 0x15a <EEPROM_write_byte>

// !!!!!!!!!WARNING!!!!!!!!!!!!! Overwrites the entire EEPROM with zeros and resets next free memory location
// takes ~ 5ms/byte in EEPROM
void EEPROM_clear() {
	USART_transmit_string("CLEARING THE EEPROM. THIS MIGHT TAKE A WHILE!!!\n\r");
	for (int i = FIRST_DATA_BYTE; i < LAST_BYTE; i++)	// only erase 10 first bytes debuggmode
 1f6:	21 96       	adiw	r28, 0x01	; 1
 1f8:	cf 3f       	cpi	r28, 0xFF	; 255
 1fa:	83 e0       	ldi	r24, 0x03	; 3
 1fc:	d8 07       	cpc	r29, r24
 1fe:	b9 f7       	brne	.-18     	; 0x1ee <EEPROM_clear+0x10>
	{
		EEPROM_write_byte(0, i);
	}
	EEPROM_write_byte(0, ADDRESS_HIGH_BYTE);
 200:	60 e0       	ldi	r22, 0x00	; 0
 202:	70 e0       	ldi	r23, 0x00	; 0
 204:	80 e0       	ldi	r24, 0x00	; 0
 206:	0e 94 ad 00 	call	0x15a	; 0x15a <EEPROM_write_byte>
	EEPROM_write_byte(FIRST_DATA_BYTE, ADDRESS_LOW_BYTE);  // set the address of the first available byte as 2
 20a:	61 e0       	ldi	r22, 0x01	; 1
 20c:	70 e0       	ldi	r23, 0x00	; 0
 20e:	82 e0       	ldi	r24, 0x02	; 2
 210:	0e 94 ad 00 	call	0x15a	; 0x15a <EEPROM_write_byte>
	USART_transmit_string("EEPROM CLEARED!\n\n\r");
 214:	82 e3       	ldi	r24, 0x32	; 50
 216:	91 e0       	ldi	r25, 0x01	; 1
 218:	0e 94 6b 02 	call	0x4d6	; 0x4d6 <USART_transmit_string>
 21c:	df 91       	pop	r29
 21e:	cf 91       	pop	r28
 220:	08 95       	ret

00000222 <store_struct>:
	int8_t minute;
} gps_t;
*/


void store_struct(gps_t *gps_data) {
 222:	cf 93       	push	r28
 224:	df 93       	push	r29
 226:	ec 01       	movw	r28, r24
	EEPROM_write_word_next_free(gps_data->lattitude);
 228:	68 81       	ld	r22, Y
 22a:	79 81       	ldd	r23, Y+1	; 0x01
 22c:	8a 81       	ldd	r24, Y+2	; 0x02
 22e:	9b 81       	ldd	r25, Y+3	; 0x03
 230:	0e 94 ce 00 	call	0x19c	; 0x19c <EEPROM_write_word_next_free>
	EEPROM_write_word_next_free(gps_data->longitude);
 234:	6c 81       	ldd	r22, Y+4	; 0x04
 236:	7d 81       	ldd	r23, Y+5	; 0x05
 238:	8e 81       	ldd	r24, Y+6	; 0x06
 23a:	9f 81       	ldd	r25, Y+7	; 0x07
 23c:	0e 94 ce 00 	call	0x19c	; 0x19c <EEPROM_write_word_next_free>
	EEPROM_write_byte_next_free(gps_data->month);
 240:	88 85       	ldd	r24, Y+8	; 0x08
 242:	0e 94 c4 00 	call	0x188	; 0x188 <EEPROM_write_byte_next_free>
	EEPROM_write_byte_next_free(gps_data->day);
 246:	89 85       	ldd	r24, Y+9	; 0x09
 248:	0e 94 c4 00 	call	0x188	; 0x188 <EEPROM_write_byte_next_free>
	EEPROM_write_byte_next_free(gps_data->hour);
 24c:	8a 85       	ldd	r24, Y+10	; 0x0a
 24e:	0e 94 c4 00 	call	0x188	; 0x188 <EEPROM_write_byte_next_free>
	EEPROM_write_byte_next_free(gps_data->minute);
 252:	8b 85       	ldd	r24, Y+11	; 0x0b
 254:	0e 94 c4 00 	call	0x188	; 0x188 <EEPROM_write_byte_next_free>
}
 258:	df 91       	pop	r29
 25a:	cf 91       	pop	r28
 25c:	08 95       	ret

0000025e <print_struct>:

void print_struct(gps_t *gps_data) {
 25e:	cf 93       	push	r28
 260:	df 93       	push	r29
 262:	ec 01       	movw	r28, r24
	USART_transmit_string("\n\r########### GPS DATA ###########");
 264:	85 e4       	ldi	r24, 0x45	; 69
 266:	91 e0       	ldi	r25, 0x01	; 1
 268:	0e 94 6b 02 	call	0x4d6	; 0x4d6 <USART_transmit_string>
	USART_transmit_string("\n\rLattitude: ");
 26c:	88 e6       	ldi	r24, 0x68	; 104
 26e:	91 e0       	ldi	r25, 0x01	; 1
 270:	0e 94 6b 02 	call	0x4d6	; 0x4d6 <USART_transmit_string>
	USART_transmit_word(gps_data->lattitude);
 274:	68 81       	ld	r22, Y
 276:	79 81       	ldd	r23, Y+1	; 0x01
 278:	8a 81       	ldd	r24, Y+2	; 0x02
 27a:	9b 81       	ldd	r25, Y+3	; 0x03
 27c:	0e 94 7a 02 	call	0x4f4	; 0x4f4 <USART_transmit_word>
	
	USART_transmit_string("\n\rLongitude: ");
 280:	86 e7       	ldi	r24, 0x76	; 118
 282:	91 e0       	ldi	r25, 0x01	; 1
 284:	0e 94 6b 02 	call	0x4d6	; 0x4d6 <USART_transmit_string>
	USART_transmit_word(gps_data->longitude);
 288:	6c 81       	ldd	r22, Y+4	; 0x04
 28a:	7d 81       	ldd	r23, Y+5	; 0x05
 28c:	8e 81       	ldd	r24, Y+6	; 0x06
 28e:	9f 81       	ldd	r25, Y+7	; 0x07
 290:	0e 94 7a 02 	call	0x4f4	; 0x4f4 <USART_transmit_word>
	
	USART_transmit_string("\n\rMonth: ");
 294:	84 e8       	ldi	r24, 0x84	; 132
 296:	91 e0       	ldi	r25, 0x01	; 1
 298:	0e 94 6b 02 	call	0x4d6	; 0x4d6 <USART_transmit_string>
	USART_transmit_byte(gps_data->month + '0');
 29c:	88 85       	ldd	r24, Y+8	; 0x08
 29e:	80 5d       	subi	r24, 0xD0	; 208
 2a0:	0e 94 63 02 	call	0x4c6	; 0x4c6 <USART_transmit_byte>
	
	USART_transmit_string("\n\rDay: ");
 2a4:	8e e8       	ldi	r24, 0x8E	; 142
 2a6:	91 e0       	ldi	r25, 0x01	; 1
 2a8:	0e 94 6b 02 	call	0x4d6	; 0x4d6 <USART_transmit_string>
	USART_transmit_byte(gps_data->day + '0');
 2ac:	89 85       	ldd	r24, Y+9	; 0x09
 2ae:	80 5d       	subi	r24, 0xD0	; 208
 2b0:	0e 94 63 02 	call	0x4c6	; 0x4c6 <USART_transmit_byte>
	
	USART_transmit_string("\n\rHour: ");
 2b4:	86 e9       	ldi	r24, 0x96	; 150
 2b6:	91 e0       	ldi	r25, 0x01	; 1
 2b8:	0e 94 6b 02 	call	0x4d6	; 0x4d6 <USART_transmit_string>
	USART_transmit_byte(gps_data->hour + '0');
 2bc:	8a 85       	ldd	r24, Y+10	; 0x0a
 2be:	80 5d       	subi	r24, 0xD0	; 208
 2c0:	0e 94 63 02 	call	0x4c6	; 0x4c6 <USART_transmit_byte>
	
	USART_transmit_string("\n\rMinute: ");
 2c4:	8f e9       	ldi	r24, 0x9F	; 159
 2c6:	91 e0       	ldi	r25, 0x01	; 1
 2c8:	0e 94 6b 02 	call	0x4d6	; 0x4d6 <USART_transmit_string>
	USART_transmit_byte(gps_data->minute + '0');
 2cc:	8b 85       	ldd	r24, Y+11	; 0x0b
 2ce:	80 5d       	subi	r24, 0xD0	; 208
 2d0:	0e 94 63 02 	call	0x4c6	; 0x4c6 <USART_transmit_byte>
	USART_transmit_string("\n\r");
 2d4:	82 e4       	ldi	r24, 0x42	; 66
 2d6:	91 e0       	ldi	r25, 0x01	; 1
 2d8:	0e 94 6b 02 	call	0x4d6	; 0x4d6 <USART_transmit_string>
}
 2dc:	df 91       	pop	r29
 2de:	cf 91       	pop	r28
 2e0:	08 95       	ret

000002e2 <get_struct>:

gps_t *get_next_struct();

void get_struct(uint8_t index, gps_t *gps_data) {
 2e2:	0f 93       	push	r16
 2e4:	1f 93       	push	r17
 2e6:	cf 93       	push	r28
 2e8:	df 93       	push	r29
 2ea:	8b 01       	movw	r16, r22
	uint16_t address = index * sizeof(gps_t) + EEPROM_HEADER_SIZE;
 2ec:	90 e0       	ldi	r25, 0x00	; 0
 2ee:	ec 01       	movw	r28, r24
 2f0:	cc 0f       	add	r28, r28
 2f2:	dd 1f       	adc	r29, r29
 2f4:	8c 0f       	add	r24, r28
 2f6:	9d 1f       	adc	r25, r29
 2f8:	ec 01       	movw	r28, r24
 2fa:	cc 0f       	add	r28, r28
 2fc:	dd 1f       	adc	r29, r29
 2fe:	cc 0f       	add	r28, r28
 300:	dd 1f       	adc	r29, r29
	gps_data->lattitude = EEPROM_read_word(address);
 302:	ce 01       	movw	r24, r28
 304:	02 96       	adiw	r24, 0x02	; 2
 306:	0e 94 54 00 	call	0xa8	; 0xa8 <EEPROM_read_word>
 30a:	f8 01       	movw	r30, r16
 30c:	60 83       	st	Z, r22
 30e:	71 83       	std	Z+1, r23	; 0x01
 310:	82 83       	std	Z+2, r24	; 0x02
 312:	93 83       	std	Z+3, r25	; 0x03
	address += sizeof(uint32_t);
	gps_data->longitude = EEPROM_read_word(address);
 314:	ce 01       	movw	r24, r28
 316:	06 96       	adiw	r24, 0x06	; 6
 318:	0e 94 54 00 	call	0xa8	; 0xa8 <EEPROM_read_word>
 31c:	f8 01       	movw	r30, r16
 31e:	64 83       	std	Z+4, r22	; 0x04
 320:	75 83       	std	Z+5, r23	; 0x05
 322:	86 83       	std	Z+6, r24	; 0x06
 324:	97 83       	std	Z+7, r25	; 0x07
	address += sizeof(uint32_t);
	gps_data->month = EEPROM_read_byte(address);
 326:	ce 01       	movw	r24, r28
 328:	0a 96       	adiw	r24, 0x0a	; 10
 32a:	0e 94 4b 00 	call	0x96	; 0x96 <EEPROM_read_byte>
 32e:	f8 01       	movw	r30, r16
 330:	80 87       	std	Z+8, r24	; 0x08
	address += sizeof(uint8_t);
	gps_data->day = EEPROM_read_byte(address);
 332:	ce 01       	movw	r24, r28
 334:	0b 96       	adiw	r24, 0x0b	; 11
 336:	0e 94 4b 00 	call	0x96	; 0x96 <EEPROM_read_byte>
 33a:	f8 01       	movw	r30, r16
 33c:	81 87       	std	Z+9, r24	; 0x09
	address += sizeof(uint8_t);
	gps_data->hour = EEPROM_read_byte(address);
 33e:	ce 01       	movw	r24, r28
 340:	0c 96       	adiw	r24, 0x0c	; 12
 342:	0e 94 4b 00 	call	0x96	; 0x96 <EEPROM_read_byte>
 346:	f8 01       	movw	r30, r16
 348:	82 87       	std	Z+10, r24	; 0x0a
	address += sizeof(uint8_t);
	gps_data->minute = EEPROM_read_byte(address);
 34a:	ce 01       	movw	r24, r28
 34c:	0d 96       	adiw	r24, 0x0d	; 13
 34e:	0e 94 4b 00 	call	0x96	; 0x96 <EEPROM_read_byte>
 352:	f8 01       	movw	r30, r16
 354:	83 87       	std	Z+11, r24	; 0x0b
	address += sizeof(uint8_t);
 356:	df 91       	pop	r29
 358:	cf 91       	pop	r28
 35a:	1f 91       	pop	r17
 35c:	0f 91       	pop	r16
 35e:	08 95       	ret

00000360 <init_structs>:
	print_struct(&temp);
	USART_transmit_string("#############################################");
}


void init_structs(gps_t *gps1, gps_t *gps2) {
 360:	dc 01       	movw	r26, r24
 362:	fb 01       	movw	r30, r22
		gps1->lattitude = 1;
 364:	41 e0       	ldi	r20, 0x01	; 1
 366:	50 e0       	ldi	r21, 0x00	; 0
 368:	60 e0       	ldi	r22, 0x00	; 0
 36a:	70 e0       	ldi	r23, 0x00	; 0
 36c:	4d 93       	st	X+, r20
 36e:	5d 93       	st	X+, r21
 370:	6d 93       	st	X+, r22
 372:	7c 93       	st	X, r23
 374:	13 97       	sbiw	r26, 0x03	; 3
		gps1->longitude = 2;
 376:	42 e0       	ldi	r20, 0x02	; 2
 378:	50 e0       	ldi	r21, 0x00	; 0
 37a:	60 e0       	ldi	r22, 0x00	; 0
 37c:	70 e0       	ldi	r23, 0x00	; 0
 37e:	14 96       	adiw	r26, 0x04	; 4
 380:	4d 93       	st	X+, r20
 382:	5d 93       	st	X+, r21
 384:	6d 93       	st	X+, r22
 386:	7c 93       	st	X, r23
 388:	17 97       	sbiw	r26, 0x07	; 7
		gps1->month = 3;
 38a:	83 e0       	ldi	r24, 0x03	; 3
 38c:	18 96       	adiw	r26, 0x08	; 8
 38e:	8c 93       	st	X, r24
 390:	18 97       	sbiw	r26, 0x08	; 8
		gps1->day = 4;
 392:	84 e0       	ldi	r24, 0x04	; 4
 394:	19 96       	adiw	r26, 0x09	; 9
 396:	8c 93       	st	X, r24
 398:	19 97       	sbiw	r26, 0x09	; 9
		gps1->hour = 5;
 39a:	85 e0       	ldi	r24, 0x05	; 5
 39c:	1a 96       	adiw	r26, 0x0a	; 10
 39e:	8c 93       	st	X, r24
 3a0:	1a 97       	sbiw	r26, 0x0a	; 10
		gps1->minute = 6;
 3a2:	86 e0       	ldi	r24, 0x06	; 6
 3a4:	1b 96       	adiw	r26, 0x0b	; 11
 3a6:	8c 93       	st	X, r24
		
		gps2->lattitude = 7;
 3a8:	87 e0       	ldi	r24, 0x07	; 7
 3aa:	90 e0       	ldi	r25, 0x00	; 0
 3ac:	a0 e0       	ldi	r26, 0x00	; 0
 3ae:	b0 e0       	ldi	r27, 0x00	; 0
 3b0:	80 83       	st	Z, r24
 3b2:	91 83       	std	Z+1, r25	; 0x01
 3b4:	a2 83       	std	Z+2, r26	; 0x02
 3b6:	b3 83       	std	Z+3, r27	; 0x03
		gps2->longitude = 7;
 3b8:	84 83       	std	Z+4, r24	; 0x04
 3ba:	95 83       	std	Z+5, r25	; 0x05
 3bc:	a6 83       	std	Z+6, r26	; 0x06
 3be:	b7 83       	std	Z+7, r27	; 0x07
		gps2->month = 7;
 3c0:	80 87       	std	Z+8, r24	; 0x08
		gps2->day = 7;
 3c2:	81 87       	std	Z+9, r24	; 0x09
		gps2->hour = 7;
 3c4:	82 87       	std	Z+10, r24	; 0x0a
		gps2->minute = 7;
 3c6:	83 87       	std	Z+11, r24	; 0x0b
 3c8:	08 95       	ret

000003ca <test_store_load_struct>:
		
    }
	return 0;
}

void test_store_load_struct() {
 3ca:	0f 93       	push	r16
 3cc:	1f 93       	push	r17
 3ce:	cf 93       	push	r28
 3d0:	df 93       	push	r29
 3d2:	cd b7       	in	r28, 0x3d	; 61
 3d4:	de b7       	in	r29, 0x3e	; 62
 3d6:	a4 97       	sbiw	r28, 0x24	; 36
 3d8:	0f b6       	in	r0, 0x3f	; 63
 3da:	f8 94       	cli
 3dc:	de bf       	out	0x3e, r29	; 62
 3de:	0f be       	out	0x3f, r0	; 63
 3e0:	cd bf       	out	0x3d, r28	; 61
	gps_t gps1;
	gps_t gps2;
	gps_t temp = {0,0,0,0,0,0};
 3e2:	8e 01       	movw	r16, r28
 3e4:	07 5e       	subi	r16, 0xE7	; 231
 3e6:	1f 4f       	sbci	r17, 0xFF	; 255
 3e8:	8c e0       	ldi	r24, 0x0C	; 12
 3ea:	f8 01       	movw	r30, r16
 3ec:	11 92       	st	Z+, r1
 3ee:	8a 95       	dec	r24
 3f0:	e9 f7       	brne	.-6      	; 0x3ec <test_store_load_struct+0x22>
	
	init_structs(&gps1, &gps2);
 3f2:	be 01       	movw	r22, r28
 3f4:	63 5f       	subi	r22, 0xF3	; 243
 3f6:	7f 4f       	sbci	r23, 0xFF	; 255
 3f8:	ce 01       	movw	r24, r28
 3fa:	01 96       	adiw	r24, 0x01	; 1
 3fc:	0e 94 b0 01 	call	0x360	; 0x360 <init_structs>
	
	store_struct(&gps1);	// should be stored at address 2
 400:	ce 01       	movw	r24, r28
 402:	01 96       	adiw	r24, 0x01	; 1
 404:	0e 94 11 01 	call	0x222	; 0x222 <store_struct>
	store_struct(&gps2);	// should be stored at address 14
 408:	ce 01       	movw	r24, r28
 40a:	0d 96       	adiw	r24, 0x0d	; 13
 40c:	0e 94 11 01 	call	0x222	; 0x222 <store_struct>
	
	get_struct(0, &temp);
 410:	b8 01       	movw	r22, r16
 412:	80 e0       	ldi	r24, 0x00	; 0
 414:	0e 94 71 01 	call	0x2e2	; 0x2e2 <get_struct>
	USART_transmit_string("#############################################");
 418:	81 ec       	ldi	r24, 0xC1	; 193
 41a:	91 e0       	ldi	r25, 0x01	; 1
 41c:	0e 94 6b 02 	call	0x4d6	; 0x4d6 <USART_transmit_string>
	USART_transmit_string("\n\rEXPECTED: ");
 420:	8a ea       	ldi	r24, 0xAA	; 170
 422:	91 e0       	ldi	r25, 0x01	; 1
 424:	0e 94 6b 02 	call	0x4d6	; 0x4d6 <USART_transmit_string>
	print_struct(&gps1);
 428:	ce 01       	movw	r24, r28
 42a:	01 96       	adiw	r24, 0x01	; 1
 42c:	0e 94 2f 01 	call	0x25e	; 0x25e <print_struct>
	USART_transmit_string("\n\rGOT:");
 430:	87 eb       	ldi	r24, 0xB7	; 183
 432:	91 e0       	ldi	r25, 0x01	; 1
 434:	0e 94 6b 02 	call	0x4d6	; 0x4d6 <USART_transmit_string>
	print_struct(&temp);
 438:	c8 01       	movw	r24, r16
 43a:	0e 94 2f 01 	call	0x25e	; 0x25e <print_struct>
	USART_transmit_string("#############################################");
 43e:	81 ec       	ldi	r24, 0xC1	; 193
 440:	91 e0       	ldi	r25, 0x01	; 1
 442:	0e 94 6b 02 	call	0x4d6	; 0x4d6 <USART_transmit_string>
	
	get_struct(1, &temp);
 446:	b8 01       	movw	r22, r16
 448:	81 e0       	ldi	r24, 0x01	; 1
 44a:	0e 94 71 01 	call	0x2e2	; 0x2e2 <get_struct>
	
	USART_transmit_string("\n\n\r#############################################");
 44e:	8e eb       	ldi	r24, 0xBE	; 190
 450:	91 e0       	ldi	r25, 0x01	; 1
 452:	0e 94 6b 02 	call	0x4d6	; 0x4d6 <USART_transmit_string>
	USART_transmit_string("\n\rEXPECTED: ");
 456:	8a ea       	ldi	r24, 0xAA	; 170
 458:	91 e0       	ldi	r25, 0x01	; 1
 45a:	0e 94 6b 02 	call	0x4d6	; 0x4d6 <USART_transmit_string>
	print_struct(&gps2);
 45e:	ce 01       	movw	r24, r28
 460:	0d 96       	adiw	r24, 0x0d	; 13
 462:	0e 94 2f 01 	call	0x25e	; 0x25e <print_struct>
	USART_transmit_string("\n\rGOT:");
 466:	87 eb       	ldi	r24, 0xB7	; 183
 468:	91 e0       	ldi	r25, 0x01	; 1
 46a:	0e 94 6b 02 	call	0x4d6	; 0x4d6 <USART_transmit_string>
	print_struct(&temp);
 46e:	c8 01       	movw	r24, r16
 470:	0e 94 2f 01 	call	0x25e	; 0x25e <print_struct>
	USART_transmit_string("#############################################");
 474:	81 ec       	ldi	r24, 0xC1	; 193
 476:	91 e0       	ldi	r25, 0x01	; 1
 478:	0e 94 6b 02 	call	0x4d6	; 0x4d6 <USART_transmit_string>
}
 47c:	a4 96       	adiw	r28, 0x24	; 36
 47e:	0f b6       	in	r0, 0x3f	; 63
 480:	f8 94       	cli
 482:	de bf       	out	0x3e, r29	; 62
 484:	0f be       	out	0x3f, r0	; 63
 486:	cd bf       	out	0x3d, r28	; 61
 488:	df 91       	pop	r29
 48a:	cf 91       	pop	r28
 48c:	1f 91       	pop	r17
 48e:	0f 91       	pop	r16
 490:	08 95       	ret

00000492 <main>:
void test_store_load_struct();


int main(void)
{
	USART_init();
 492:	0e 94 52 02 	call	0x4a4	; 0x4a4 <USART_init>
	USART_clear_putty();
 496:	0e 94 cd 02 	call	0x59a	; 0x59a <USART_clear_putty>
	EEPROM_clear();
 49a:	0e 94 ef 00 	call	0x1de	; 0x1de <EEPROM_clear>
	test_store_load_struct();
 49e:	0e 94 e5 01 	call	0x3ca	; 0x3ca <test_store_load_struct>
 4a2:	ff cf       	rjmp	.-2      	; 0x4a2 <main+0x10>

000004a4 <USART_init>:
			USART_transmit_byte('1');
		} else {
			USART_transmit_byte('0');
		}
	}
}
 4a4:	88 e1       	ldi	r24, 0x18	; 24
 4a6:	80 93 c1 00 	sts	0x00C1, r24	; 0x8000c1 <__TEXT_REGION_LENGTH__+0x7e00c1>
 4aa:	86 e0       	ldi	r24, 0x06	; 6
 4ac:	80 93 c2 00 	sts	0x00C2, r24	; 0x8000c2 <__TEXT_REGION_LENGTH__+0x7e00c2>
 4b0:	10 92 c5 00 	sts	0x00C5, r1	; 0x8000c5 <__TEXT_REGION_LENGTH__+0x7e00c5>
 4b4:	8c e0       	ldi	r24, 0x0C	; 12
 4b6:	80 93 c4 00 	sts	0x00C4, r24	; 0x8000c4 <__TEXT_REGION_LENGTH__+0x7e00c4>
 4ba:	e0 ec       	ldi	r30, 0xC0	; 192
 4bc:	f0 e0       	ldi	r31, 0x00	; 0
 4be:	80 81       	ld	r24, Z
 4c0:	82 60       	ori	r24, 0x02	; 2
 4c2:	80 83       	st	Z, r24
 4c4:	08 95       	ret

000004c6 <USART_transmit_byte>:
 4c6:	e0 ec       	ldi	r30, 0xC0	; 192
 4c8:	f0 e0       	ldi	r31, 0x00	; 0
 4ca:	90 81       	ld	r25, Z
 4cc:	95 ff       	sbrs	r25, 5
 4ce:	fd cf       	rjmp	.-6      	; 0x4ca <USART_transmit_byte+0x4>
 4d0:	80 93 c6 00 	sts	0x00C6, r24	; 0x8000c6 <__TEXT_REGION_LENGTH__+0x7e00c6>
 4d4:	08 95       	ret

000004d6 <USART_transmit_string>:
 4d6:	cf 93       	push	r28
 4d8:	df 93       	push	r29
 4da:	ec 01       	movw	r28, r24
 4dc:	88 81       	ld	r24, Y
 4de:	88 23       	and	r24, r24
 4e0:	31 f0       	breq	.+12     	; 0x4ee <USART_transmit_string+0x18>
 4e2:	21 96       	adiw	r28, 0x01	; 1
 4e4:	0e 94 63 02 	call	0x4c6	; 0x4c6 <USART_transmit_byte>
 4e8:	89 91       	ld	r24, Y+
 4ea:	81 11       	cpse	r24, r1
 4ec:	fb cf       	rjmp	.-10     	; 0x4e4 <USART_transmit_string+0xe>
 4ee:	df 91       	pop	r29
 4f0:	cf 91       	pop	r28
 4f2:	08 95       	ret

000004f4 <USART_transmit_word>:

void USART_transmit_word(uint32_t word) {
 4f4:	4f 92       	push	r4
 4f6:	5f 92       	push	r5
 4f8:	6f 92       	push	r6
 4fa:	7f 92       	push	r7
 4fc:	8f 92       	push	r8
 4fe:	9f 92       	push	r9
 500:	af 92       	push	r10
 502:	bf 92       	push	r11
 504:	cf 92       	push	r12
 506:	df 92       	push	r13
 508:	ef 92       	push	r14
 50a:	ff 92       	push	r15
 50c:	cf 93       	push	r28
 50e:	df 93       	push	r29
 510:	2b 01       	movw	r4, r22
 512:	3c 01       	movw	r6, r24
	uint32_t divisor = 1000000000;

	USART_transmit_byte((word / divisor) + '0');
 514:	20 e0       	ldi	r18, 0x00	; 0
 516:	3a ec       	ldi	r19, 0xCA	; 202
 518:	4a e9       	ldi	r20, 0x9A	; 154
 51a:	5b e3       	ldi	r21, 0x3B	; 59
 51c:	0e 94 d9 02 	call	0x5b2	; 0x5b2 <__udivmodsi4>
 520:	80 e3       	ldi	r24, 0x30	; 48
 522:	82 0f       	add	r24, r18
 524:	0e 94 63 02 	call	0x4c6	; 0x4c6 <USART_transmit_byte>
 528:	c9 e0       	ldi	r28, 0x09	; 9
 52a:	d0 e0       	ldi	r29, 0x00	; 0
		}
	}
}

void USART_transmit_word(uint32_t word) {
	uint32_t divisor = 1000000000;
 52c:	0f 2e       	mov	r0, r31
 52e:	c1 2c       	mov	r12, r1
 530:	fa ec       	ldi	r31, 0xCA	; 202
 532:	df 2e       	mov	r13, r31
 534:	fa e9       	ldi	r31, 0x9A	; 154
 536:	ef 2e       	mov	r14, r31
 538:	fb e3       	ldi	r31, 0x3B	; 59
 53a:	ff 2e       	mov	r15, r31
 53c:	f0 2d       	mov	r31, r0

	USART_transmit_byte((word / divisor) + '0');
	
	while (divisor > 1) {
		divisor = divisor / 10;
 53e:	0f 2e       	mov	r0, r31
 540:	fa e0       	ldi	r31, 0x0A	; 10
 542:	8f 2e       	mov	r8, r31
 544:	91 2c       	mov	r9, r1
 546:	a1 2c       	mov	r10, r1
 548:	b1 2c       	mov	r11, r1
 54a:	f0 2d       	mov	r31, r0
 54c:	c7 01       	movw	r24, r14
 54e:	b6 01       	movw	r22, r12
 550:	a5 01       	movw	r20, r10
 552:	94 01       	movw	r18, r8
 554:	0e 94 d9 02 	call	0x5b2	; 0x5b2 <__udivmodsi4>
 558:	69 01       	movw	r12, r18
 55a:	7a 01       	movw	r14, r20
		USART_transmit_byte(((word / divisor) % 10) + '0');
 55c:	c3 01       	movw	r24, r6
 55e:	b2 01       	movw	r22, r4
 560:	0e 94 d9 02 	call	0x5b2	; 0x5b2 <__udivmodsi4>
 564:	ca 01       	movw	r24, r20
 566:	b9 01       	movw	r22, r18
 568:	a5 01       	movw	r20, r10
 56a:	94 01       	movw	r18, r8
 56c:	0e 94 d9 02 	call	0x5b2	; 0x5b2 <__udivmodsi4>
 570:	80 e3       	ldi	r24, 0x30	; 48
 572:	86 0f       	add	r24, r22
 574:	0e 94 63 02 	call	0x4c6	; 0x4c6 <USART_transmit_byte>
 578:	21 97       	sbiw	r28, 0x01	; 1
void USART_transmit_word(uint32_t word) {
	uint32_t divisor = 1000000000;

	USART_transmit_byte((word / divisor) + '0');
	
	while (divisor > 1) {
 57a:	41 f7       	brne	.-48     	; 0x54c <USART_transmit_word+0x58>
		divisor = divisor / 10;
		USART_transmit_byte(((word / divisor) % 10) + '0');
	}
}
 57c:	df 91       	pop	r29
 57e:	cf 91       	pop	r28
 580:	ff 90       	pop	r15
 582:	ef 90       	pop	r14
 584:	df 90       	pop	r13
 586:	cf 90       	pop	r12
 588:	bf 90       	pop	r11
 58a:	af 90       	pop	r10
 58c:	9f 90       	pop	r9
 58e:	8f 90       	pop	r8
 590:	7f 90       	pop	r7
 592:	6f 90       	pop	r6
 594:	5f 90       	pop	r5
 596:	4f 90       	pop	r4
 598:	08 95       	ret

0000059a <USART_clear_putty>:

void USART_clear_putty() {
 59a:	cf 93       	push	r28
 59c:	c4 e1       	ldi	r28, 0x14	; 20
	for (uint8_t i = 0; i < 20; i++)
	{
		USART_transmit_byte('\n');
 59e:	8a e0       	ldi	r24, 0x0A	; 10
 5a0:	0e 94 63 02 	call	0x4c6	; 0x4c6 <USART_transmit_byte>
 5a4:	c1 50       	subi	r28, 0x01	; 1
		USART_transmit_byte(((word / divisor) % 10) + '0');
	}
}

void USART_clear_putty() {
	for (uint8_t i = 0; i < 20; i++)
 5a6:	d9 f7       	brne	.-10     	; 0x59e <USART_clear_putty+0x4>
	{
		USART_transmit_byte('\n');
	}
	USART_transmit_byte('\r');
 5a8:	8d e0       	ldi	r24, 0x0D	; 13
 5aa:	0e 94 63 02 	call	0x4c6	; 0x4c6 <USART_transmit_byte>
}
 5ae:	cf 91       	pop	r28
 5b0:	08 95       	ret

000005b2 <__udivmodsi4>:
 5b2:	a1 e2       	ldi	r26, 0x21	; 33
 5b4:	1a 2e       	mov	r1, r26
 5b6:	aa 1b       	sub	r26, r26
 5b8:	bb 1b       	sub	r27, r27
 5ba:	fd 01       	movw	r30, r26
 5bc:	0d c0       	rjmp	.+26     	; 0x5d8 <__udivmodsi4_ep>

000005be <__udivmodsi4_loop>:
 5be:	aa 1f       	adc	r26, r26
 5c0:	bb 1f       	adc	r27, r27
 5c2:	ee 1f       	adc	r30, r30
 5c4:	ff 1f       	adc	r31, r31
 5c6:	a2 17       	cp	r26, r18
 5c8:	b3 07       	cpc	r27, r19
 5ca:	e4 07       	cpc	r30, r20
 5cc:	f5 07       	cpc	r31, r21
 5ce:	20 f0       	brcs	.+8      	; 0x5d8 <__udivmodsi4_ep>
 5d0:	a2 1b       	sub	r26, r18
 5d2:	b3 0b       	sbc	r27, r19
 5d4:	e4 0b       	sbc	r30, r20
 5d6:	f5 0b       	sbc	r31, r21

000005d8 <__udivmodsi4_ep>:
 5d8:	66 1f       	adc	r22, r22
 5da:	77 1f       	adc	r23, r23
 5dc:	88 1f       	adc	r24, r24
 5de:	99 1f       	adc	r25, r25
 5e0:	1a 94       	dec	r1
 5e2:	69 f7       	brne	.-38     	; 0x5be <__udivmodsi4_loop>
 5e4:	60 95       	com	r22
 5e6:	70 95       	com	r23
 5e8:	80 95       	com	r24
 5ea:	90 95       	com	r25
 5ec:	9b 01       	movw	r18, r22
 5ee:	ac 01       	movw	r20, r24
 5f0:	bd 01       	movw	r22, r26
 5f2:	cf 01       	movw	r24, r30
 5f4:	08 95       	ret

000005f6 <_exit>:
 5f6:	f8 94       	cli

000005f8 <__stop_program>:
 5f8:	ff cf       	rjmp	.-2      	; 0x5f8 <__stop_program>
